target datalayout = "e-m:e-p270:32:32-p271:32:32-p272:64:64-i64:64-i128:128-f80:128-n8:16:32:64-S128"
target triple = "x86_64-pc-linux-gnu"

%"class.OpenColorIO_v2_5dev::Lut3DOpData" = type { %"class.OpenColorIO_v2_5dev::OpData", i32, %"class.OpenColorIO_v2_5dev::Lut3DOpData::Lut3DArray", i32, i32 }
%"class.OpenColorIO_v2_5dev::OpData" = type { ptr, %"class.std::mutex", %"class.OpenColorIO_v2_5dev::FormatMetadataImpl" }
%"class.std::mutex" = type { %"class.std::__mutex_base" }
%"class.std::__mutex_base" = type { %union.pthread_mutex_t }
%union.pthread_mutex_t = type { %struct.__pthread_mutex_s }
%struct.__pthread_mutex_s = type { i32, i32, i32, i32, i32, i16, i16, %struct.__pthread_internal_list }
%struct.__pthread_internal_list = type { ptr, ptr }
%"class.OpenColorIO_v2_5dev::FormatMetadataImpl" = type { %"class.OpenColorIO_v2_5dev::FormatMetadata", %"class.std::__cxx11::basic_string", %"class.std::__cxx11::basic_string", %"class.std::vector", %"class.std::vector.6" }
%"class.OpenColorIO_v2_5dev::FormatMetadata" = type { ptr }
%"class.std::__cxx11::basic_string" = type { %"struct.std::__cxx11::basic_string<char>::_Alloc_hider", i64, %union.anon }
%"struct.std::__cxx11::basic_string<char>::_Alloc_hider" = type { ptr }
%union.anon = type { i64, [8 x i8] }
%"class.std::vector" = type { %"struct.std::_Vector_base" }
%"struct.std::_Vector_base" = type { %"struct.std::_Vector_base<std::pair<std::__cxx11::basic_string<char>, std::__cxx11::basic_string<char>>, std::allocator<std::pair<std::__cxx11::basic_string<char>, std::__cxx11::basic_string<char>>>>::_Vector_impl" }
%"struct.std::_Vector_base<std::pair<std::__cxx11::basic_string<char>, std::__cxx11::basic_string<char>>, std::allocator<std::pair<std::__cxx11::basic_string<char>, std::__cxx11::basic_string<char>>>>::_Vector_impl" = type { %"struct.std::_Vector_base<std::pair<std::__cxx11::basic_string<char>, std::__cxx11::basic_string<char>>, std::allocator<std::pair<std::__cxx11::basic_string<char>, std::__cxx11::basic_string<char>>>>::_Vector_impl_data" }
%"struct.std::_Vector_base<std::pair<std::__cxx11::basic_string<char>, std::__cxx11::basic_string<char>>, std::allocator<std::pair<std::__cxx11::basic_string<char>, std::__cxx11::basic_string<char>>>>::_Vector_impl_data" = type { ptr, ptr, ptr }
%"class.std::vector.6" = type { %"struct.std::_Vector_base.7" }
%"struct.std::_Vector_base.7" = type { %"struct.std::_Vector_base<OpenColorIO_v2_5dev::FormatMetadataImpl, std::allocator<OpenColorIO_v2_5dev::FormatMetadataImpl>>::_Vector_impl" }
%"struct.std::_Vector_base<OpenColorIO_v2_5dev::FormatMetadataImpl, std::allocator<OpenColorIO_v2_5dev::FormatMetadataImpl>>::_Vector_impl" = type { %"struct.std::_Vector_base<OpenColorIO_v2_5dev::FormatMetadataImpl, std::allocator<OpenColorIO_v2_5dev::FormatMetadataImpl>>::_Vector_impl_data" }
%"struct.std::_Vector_base<OpenColorIO_v2_5dev::FormatMetadataImpl, std::allocator<OpenColorIO_v2_5dev::FormatMetadataImpl>>::_Vector_impl_data" = type { ptr, ptr, ptr }
%"class.OpenColorIO_v2_5dev::Lut3DOpData::Lut3DArray" = type { %"class.OpenColorIO_v2_5dev::ArrayT" }
%"class.OpenColorIO_v2_5dev::ArrayT" = type { %"class.OpenColorIO_v2_5dev::ArrayBase", i64, i64, %"class.std::vector.11" }
%"class.OpenColorIO_v2_5dev::ArrayBase" = type { ptr }
%"class.std::vector.11" = type { %"struct.std::_Vector_base.12" }
%"struct.std::_Vector_base.12" = type { %"struct.std::_Vector_base<float, std::allocator<float>>::_Vector_impl" }
%"struct.std::_Vector_base<float, std::allocator<float>>::_Vector_impl" = type { %"struct.std::_Vector_base<float, std::allocator<float>>::_Vector_impl_data" }
%"struct.std::_Vector_base<float, std::allocator<float>>::_Vector_impl_data" = type { ptr, ptr, ptr }

@_ZTVN19OpenColorIO_v2_5dev6OpDataE = external unnamed_addr constant { [13 x ptr] }, align 8
@_ZN19OpenColorIO_v2_5dev11Lut3DOpData10Lut3DArrayC1Em = hidden unnamed_addr alias void (ptr, i64), ptr @_ZN19OpenColorIO_v2_5dev11Lut3DOpData10Lut3DArrayC2Em

; Function Attrs: mustprogress nounwind uwtable
define linkonce_odr hidden void @_ZN19OpenColorIO_v2_5dev6OpDataD2Ev(ptr noundef nonnull align 8 dereferenceable(168) %0) unnamed_addr #5 comdat align 2 {
  %2 = alloca ptr, align 8
  store ptr %0, ptr %2, align 8, !tbaa !71
  %3 = load ptr, ptr %2, align 8
  store ptr getelementptr inbounds inrange(-16, 88) ({ [13 x ptr] }, ptr @_ZTVN19OpenColorIO_v2_5dev6OpDataE, i32 0, i32 0, i32 2), ptr %3, align 8, !tbaa !57
  %4 = getelementptr inbounds nuw %"class.OpenColorIO_v2_5dev::OpData", ptr %3, i32 0, i32 2
  call void @_ZN19OpenColorIO_v2_5dev18FormatMetadataImplD1Ev(ptr noundef nonnull align 8 dereferenceable(120) %4) #3
  ret void
}

; Function Attrs: mustprogress uwtable
define hidden void @_ZN19OpenColorIO_v2_5dev11Lut3DOpDataC2ENS_13InterpolationEm(ptr noundef nonnull align 8 dereferenceable(232) %0, i32 noundef %1, i64 noundef %2) unnamed_addr #4 align 2 personality ptr @__gxx_personality_v0 {
  %4 = alloca ptr, align 8
  %5 = alloca i32, align 4
  %6 = alloca i64, align 8
  %7 = alloca ptr, align 8
  %8 = alloca i32, align 4
  store ptr %0, ptr %4, align 8, !tbaa !12
  store i32 %1, ptr %5, align 4, !tbaa !59
  store i64 %2, ptr %6, align 8, !tbaa !8
  %9 = load ptr, ptr %4, align 8
  call void @_ZN19OpenColorIO_v2_5dev6OpDataC2Ev(ptr noundef nonnull align 8 dereferenceable(168) %9)
  store ptr getelementptr inbounds inrange(-16, 88) ({ [13 x ptr] }, ptr @_ZTVN19OpenColorIO_v2_5dev11Lut3DOpDataE, i32 0, i32 0, i32 2), ptr %9, align 8, !tbaa !57
  %10 = getelementptr inbounds nuw %"class.OpenColorIO_v2_5dev::Lut3DOpData", ptr %9, i32 0, i32 1
  %11 = load i32, ptr %5, align 4, !tbaa !59
  store i32 %11, ptr %10, align 8, !tbaa !70
  %12 = getelementptr inbounds nuw %"class.OpenColorIO_v2_5dev::Lut3DOpData", ptr %9, i32 0, i32 2
  %13 = load i64, ptr %6, align 8, !tbaa !8
  invoke void @_ZN19OpenColorIO_v2_5dev11Lut3DOpData10Lut3DArrayC1Em(ptr noundef nonnull align 8 dereferenceable(48) %12, i64 noundef %13)
          to label %14 unwind label %17

14:                                               ; preds = %3
  %15 = getelementptr inbounds nuw %"class.OpenColorIO_v2_5dev::Lut3DOpData", ptr %9, i32 0, i32 3
  store i32 0, ptr %15, align 8, !tbaa !14
  %16 = getelementptr inbounds nuw %"class.OpenColorIO_v2_5dev::Lut3DOpData", ptr %9, i32 0, i32 4
  store i32 0, ptr %16, align 4, !tbaa !52
  ret void

17:                                               ; preds = %3
  %18 = landingpad { ptr, i32 }
          cleanup
  %19 = extractvalue { ptr, i32 } %18, 0
  store ptr %19, ptr %7, align 8
  %20 = extractvalue { ptr, i32 } %18, 1
  store i32 %20, ptr %8, align 4
  call void @_ZN19OpenColorIO_v2_5dev6OpDataD2Ev(ptr noundef nonnull align 8 dereferenceable(168) %9) #3
  br label %21

21:                                               ; preds = %17
  %22 = load ptr, ptr %7, align 8
  %23 = load i32, ptr %8, align 4
  %24 = insertvalue { ptr, i32 } poison, ptr %22, 0
  %25 = insertvalue { ptr, i32 } %24, i32 %23, 1
  resume { ptr, i32 } %25
}