; Function Attrs: mustprogress uwtable
define hidden void @_ZN19OpenColorIO_v2_5dev11Lut3DOpDataC2ENS_13InterpolationEm(ptr noundef nonnull align 8 dereferenceable(232) %0, i32 noundef %1, i64 noundef %2) unnamed_addr #3 align 2 personality ptr @__gxx_personality_v0 {
  tail call void @_ZN19OpenColorIO_v2_5dev6OpDataC2Ev(ptr noundef nonnull align 8 dereferenceable(168) %0)
  store ptr getelementptr inbounds nuw inrange(-16, 88) (i8, ptr @_ZTVN19OpenColorIO_v2_5dev11Lut3DOpDataE, i64 16), ptr %0, align 8, !tbaa !50
  %4 = getelementptr inbounds nuw i8, ptr %0, i64 168
  store i32 %1, ptr %4, align 8, !tbaa !71
  %5 = getelementptr inbounds nuw i8, ptr %0, i64 176
  %6 = getelementptr inbounds nuw i8, ptr %0, i64 184
  tail call void @llvm.memset.p0.i64(ptr noundef nonnull align 8 dereferenceable(40) %6, i8 0, i64 40, i1 false)
  store ptr getelementptr inbounds nuw inrange(-16, 72) (i8, ptr @_ZTVN19OpenColorIO_v2_5dev11Lut3DOpData10Lut3DArrayE, i64 16), ptr %5, align 8, !tbaa !50
  invoke void @_ZN19OpenColorIO_v2_5dev11Lut3DOpData10Lut3DArray6resizeEmm(ptr noundef nonnull align 8 dereferenceable(48) %5, i64 noundef %2, i64 noundef 3)
          to label %7 unwind label %35

7:                                                ; preds = %3
  %8 = load ptr, ptr %5, align 8, !tbaa !50
  %9 = getelementptr inbounds nuw i8, ptr %8, i64 32
  %10 = load ptr, ptr %9, align 8
  %11 = invoke noundef i64 %10(ptr noundef nonnull align 8 dereferenceable(48) %5)
          to label %.noexc.i unwind label %35

.noexc.i:                                         ; preds = %7
  %12 = sitofp i64 %11 to float
  %13 = fadd float %12, -1.000000e+00
  %14 = fdiv float 1.000000e+00, %13
  %15 = mul nsw i64 %11, %11
  %16 = mul nsw i64 %15, %11
  %17 = icmp sgt i64 %16, 0
  br i1 %17, label %.lr.ph.i.i, label %_ZN19OpenColorIO_v2_5dev11Lut3DOpData10Lut3DArrayC2Em.exit

.lr.ph.i.i:                                       ; preds = %.noexc.i
  %18 = getelementptr inbounds nuw i8, ptr %0, i64 200
  %19 = load ptr, ptr %18, align 8, !tbaa !81
  %invariant.gep.i.i = getelementptr inbounds nuw i8, ptr %19, i64 4
  %invariant.gep29.i.i = getelementptr inbounds nuw i8, ptr %19, i64 8
  br label %20

20:                                               ; preds = %20, %.lr.ph.i.i
  %.028.i.i = phi i64 [ 0, %.lr.ph.i.i ], [ %34, %20 ]
  %21 = sdiv i64 %.028.i.i, %11
  %22 = sdiv i64 %21, %11
  %23 = srem i64 %22, %11
  %24 = sitofp i64 %23 to float
  %25 = fmul float %14, %24
  %26 = mul nuw nsw i64 %.028.i.i, 3
  %27 = getelementptr inbounds nuw float, ptr %19, i64 %26
  store float %25, ptr %27, align 4, !tbaa !92
  %28 = srem i64 %21, %11
  %29 = sitofp i64 %28 to float
  %30 = fmul float %14, %29
  %gep.i.i = getelementptr inbounds nuw float, ptr %invariant.gep.i.i, i64 %26
  store float %30, ptr %gep.i.i, align 4, !tbaa !92
  %31 = srem i64 %.028.i.i, %11
  %32 = uitofp nneg i64 %31 to float
  %33 = fmul float %14, %32
  %gep30.i.i = getelementptr inbounds nuw float, ptr %invariant.gep29.i.i, i64 %26
  store float %33, ptr %gep30.i.i, align 4, !tbaa !92
  %34 = add nuw nsw i64 %.028.i.i, 1
  %exitcond.not.i.i = icmp eq i64 %34, %16
  br i1 %exitcond.not.i.i, label %_ZN19OpenColorIO_v2_5dev11Lut3DOpData10Lut3DArrayC2Em.exit, label %20, !llvm.loop !94

35:                                               ; preds = %7, %3
  %36 = landingpad { ptr, i32 }
          cleanup
  store ptr getelementptr inbounds nuw inrange(-16, 72) (i8, ptr @_ZTVN19OpenColorIO_v2_5dev6ArrayTIfEE, i64 16), ptr %5, align 8, !tbaa !50
  %37 = getelementptr inbounds nuw i8, ptr %0, i64 200
  %38 = load ptr, ptr %37, align 8, !tbaa !81
  %.not.i.i.i.i.i = icmp eq ptr %38, null
  br i1 %.not.i.i.i.i.i, label %.body, label %39

39:                                               ; preds = %35
  %40 = getelementptr inbounds nuw i8, ptr %0, i64 216
  %41 = load ptr, ptr %40, align 8, !tbaa !95
  %42 = ptrtoint ptr %41 to i64
  %43 = ptrtoint ptr %38 to i64
  %44 = sub i64 %42, %43
  tail call void @_ZdlPvm(ptr noundef nonnull %38, i64 noundef %44) #31
  br label %.body

_ZN19OpenColorIO_v2_5dev11Lut3DOpData10Lut3DArrayC2Em.exit: ; preds = %20, %.noexc.i
  %45 = getelementptr inbounds nuw i8, ptr %0, i64 224
  store i32 0, ptr %45, align 8, !tbaa !11
  %46 = getelementptr inbounds nuw i8, ptr %0, i64 228
  store i32 0, ptr %46, align 4, !tbaa !54
  ret void

.body:                                            ; preds = %35, %39
  store ptr getelementptr inbounds nuw inrange(-16, 88) (i8, ptr @_ZTVN19OpenColorIO_v2_5dev6OpDataE, i64 16), ptr %0, align 8, !tbaa !50
  %47 = getelementptr inbounds nuw i8, ptr %0, i64 48
  tail call void @_ZN19OpenColorIO_v2_5dev18FormatMetadataImplD1Ev(ptr noundef nonnull align 8 dereferenceable(120) %47) #28
  resume { ptr, i32 } %36
}